target datalayout = "e-m:e-p270:32:32-p271:32:32-p272:64:64-i64:64-i128:128-f80:128-n8:16:32:64-S128"
target triple = "x86_64-pc-linux-gnu"

@verbose = internal global i32 0, align 4
@select_name = internal global ptr null, align 8
@bio_out = external global ptr, align 8
@.str.83 = private unnamed_addr constant [2 x i8] c"\0A\00", align 1
@.str.103 = private unnamed_addr constant [7 x i8] c" @ %s\0A\00", align 1
@.str.106 = private unnamed_addr constant [33 x i8] c"retrievable operation parameters\00", align 1
@.str.107 = private unnamed_addr constant [30 x i8] c"settable operation parameters\00", align 1
@.str.114 = private unnamed_addr constant [9 x i8] c"  Name: \00", align 1
@.str.115 = private unnamed_addr constant [3 x i8] c"%s\00", align 1
@.str.116 = private unnamed_addr constant [30 x i8] c"    Type: Provider Algorithm\0A\00", align 1
@.str.117 = private unnamed_addr constant [10 x i8] c"    IDs: \00", align 1
@.str.118 = private unnamed_addr constant [35 x i8] c"settable key generation parameters\00", align 1

; Function Attrs: inlinehint nounwind uwtable
define internal void @sk_EVP_KEYMGMT_pop_free(ptr noundef %0, ptr noundef %1) #5 {
  %3 = alloca ptr, align 8
  %4 = alloca ptr, align 8
  store ptr %0, ptr %3, align 8, !tbaa !77
  store ptr %1, ptr %4, align 8, !tbaa !123
  %5 = load ptr, ptr %3, align 8, !tbaa !77
  %6 = load ptr, ptr %4, align 8, !tbaa !123
  call void @OPENSSL_sk_pop_free(ptr noundef %5, ptr noundef %6)
  ret void
}

; Function Attrs: inlinehint nounwind uwtable
define internal ptr @ossl_check_OPENSSL_CSTRING_sk_type(ptr noundef %0) #5 {
  %2 = alloca ptr, align 8
  store ptr %0, ptr %2, align 8, !tbaa !39
  %3 = load ptr, ptr %2, align 8, !tbaa !39
  ret ptr %3
}

; Function Attrs: inlinehint nounwind uwtable
define internal ptr @ossl_check_const_OPENSSL_CSTRING_sk_type(ptr noundef %0) #5 {
  %2 = alloca ptr, align 8
  store ptr %0, ptr %2, align 8, !tbaa !39
  %3 = load ptr, ptr %2, align 8, !tbaa !39
  ret ptr %3
}

; Function Attrs: inlinehint nounwind uwtable
define internal ptr @ossl_check_OPENSSL_CSTRING_compfunc_type(ptr noundef %0) #5 {
  %2 = alloca ptr, align 8
  store ptr %0, ptr %2, align 8, !tbaa !123
  %3 = load ptr, ptr %2, align 8, !tbaa !123
  ret ptr %3
}

; Function Attrs: inlinehint nounwind uwtable
define internal ptr @sk_EVP_KEYMGMT_value(ptr noundef %0, i32 noundef %1) #5 {
  %3 = alloca ptr, align 8
  %4 = alloca i32, align 4
  store ptr %0, ptr %3, align 8, !tbaa !77
  store i32 %1, ptr %4, align 4, !tbaa !4
  %5 = load ptr, ptr %3, align 8, !tbaa !77
  %6 = load i32, ptr %4, align 4, !tbaa !4
  %7 = call ptr @OPENSSL_sk_value(ptr noundef %5, i32 noundef %6)
  ret ptr %7
}

; Function Attrs: inlinehint nounwind uwtable
define internal i32 @sk_EVP_KEYMGMT_num(ptr noundef %0) #5 {
  %2 = alloca ptr, align 8
  store ptr %0, ptr %2, align 8, !tbaa !77
  %3 = load ptr, ptr %2, align 8, !tbaa !77
  %4 = call i32 @OPENSSL_sk_num(ptr noundef %3)
  ret i32 %4
}

; Function Attrs: inlinehint nounwind uwtable
define internal void @sk_EVP_KEYMGMT_sort(ptr noundef %0) #5 {
  %2 = alloca ptr, align 8
  store ptr %0, ptr %2, align 8, !tbaa !77
  %3 = load ptr, ptr %2, align 8, !tbaa !77
  call void @OPENSSL_sk_sort(ptr noundef %3)
  ret void
}

; Function Attrs: inlinehint nounwind uwtable
define internal ptr @sk_EVP_KEYMGMT_new(ptr noundef %0) #5 {
  %2 = alloca ptr, align 8
  store ptr %0, ptr %2, align 8, !tbaa !123
  %3 = load ptr, ptr %2, align 8, !tbaa !123
  %4 = call ptr @OPENSSL_sk_new(ptr noundef %3)
  ret ptr %4
}

; Function Attrs: nounwind uwtable
define internal void @list_keymanagers() #0 {
  %1 = alloca i32, align 4
  %2 = alloca ptr, align 8
  %3 = alloca ptr, align 8
  %4 = alloca ptr, align 8
  %5 = alloca i32, align 4
  %6 = alloca ptr, align 8
  call void @llvm.lifetime.start.p0(i64 4, ptr %1) #7
  call void @llvm.lifetime.start.p0(i64 8, ptr %2) #7
  %7 = call ptr @sk_EVP_KEYMGMT_new(ptr noundef @keymanager_cmp)
  store ptr %7, ptr %2, align 8, !tbaa !77
  %8 = call ptr @app_get0_libctx()
  %9 = load ptr, ptr %2, align 8, !tbaa !77
  call void @EVP_KEYMGMT_do_all_provided(ptr noundef %8, ptr noundef @collect_keymanagers, ptr noundef %9)
  %10 = load ptr, ptr %2, align 8, !tbaa !77
  call void @sk_EVP_KEYMGMT_sort(ptr noundef %10)
  store i32 0, ptr %1, align 4, !tbaa !4
  br label %11

11:                                               ; preds = %88, %0
  %12 = load i32, ptr %1, align 4, !tbaa !4
  %13 = load ptr, ptr %2, align 8, !tbaa !77
  %14 = call i32 @sk_EVP_KEYMGMT_num(ptr noundef %13)
  %15 = icmp slt i32 %12, %14
  br i1 %15, label %16, label %91

16:                                               ; preds = %11
  call void @llvm.lifetime.start.p0(i64 8, ptr %3) #7
  %17 = load ptr, ptr %2, align 8, !tbaa !77
  %18 = load i32, ptr %1, align 4, !tbaa !4
  %19 = call ptr @sk_EVP_KEYMGMT_value(ptr noundef %17, i32 noundef %18)
  store ptr %19, ptr %3, align 8, !tbaa !79
  call void @llvm.lifetime.start.p0(i64 8, ptr %4) #7
  store ptr null, ptr %4, align 8, !tbaa !39
  %20 = load ptr, ptr @select_name, align 8, !tbaa !11
  %21 = icmp ne ptr %20, null
  br i1 %21, label %22, label %28

22:                                               ; preds = %16
  %23 = load ptr, ptr %3, align 8, !tbaa !79
  %24 = load ptr, ptr @select_name, align 8, !tbaa !11
  %25 = call i32 @EVP_KEYMGMT_is_a(ptr noundef %23, ptr noundef %24)
  %26 = icmp ne i32 %25, 0
  br i1 %26, label %28, label %27

27:                                               ; preds = %22
  store i32 4, ptr %5, align 4
  br label %85

28:                                               ; preds = %22, %16
  %29 = call ptr @ossl_check_OPENSSL_CSTRING_compfunc_type(ptr noundef @name_cmp)
  %30 = call ptr @OPENSSL_sk_new(ptr noundef %29)
  store ptr %30, ptr %4, align 8, !tbaa !39
  %31 = load ptr, ptr %4, align 8, !tbaa !39
  %32 = icmp ne ptr %31, null
  br i1 %32, label %33, label %82

33:                                               ; preds = %28
  %34 = load ptr, ptr %3, align 8, !tbaa !79
  %35 = load ptr, ptr %4, align 8, !tbaa !39
  %36 = call i32 @EVP_KEYMGMT_names_do_all(ptr noundef %34, ptr noundef @collect_names, ptr noundef %35)
  %37 = icmp ne i32 %36, 0
  br i1 %37, label %38, label %82

38:                                               ; preds = %33
  call void @llvm.lifetime.start.p0(i64 8, ptr %6) #7
  %39 = load ptr, ptr %3, align 8, !tbaa !79
  %40 = call ptr @EVP_KEYMGMT_get0_description(ptr noundef %39)
  store ptr %40, ptr %6, align 8, !tbaa !11
  %41 = load ptr, ptr @bio_out, align 8, !tbaa !13
  %42 = call i32 (ptr, ptr, ...) @BIO_printf(ptr noundef %41, ptr noundef @.str.114)
  %43 = load ptr, ptr %6, align 8, !tbaa !11
  %44 = icmp ne ptr %43, null
  br i1 %44, label %45, label %49

45:                                               ; preds = %38
  %46 = load ptr, ptr @bio_out, align 8, !tbaa !13
  %47 = load ptr, ptr %6, align 8, !tbaa !11
  %48 = call i32 (ptr, ptr, ...) @BIO_printf(ptr noundef %46, ptr noundef @.str.115, ptr noundef %47)
  br label %55

49:                                               ; preds = %38
  %50 = load ptr, ptr @bio_out, align 8, !tbaa !13
  %51 = load ptr, ptr %4, align 8, !tbaa !39
  %52 = call ptr @ossl_check_const_OPENSSL_CSTRING_sk_type(ptr noundef %51)
  %53 = call ptr @OPENSSL_sk_value(ptr noundef %52, i32 noundef 0)
  %54 = call i32 (ptr, ptr, ...) @BIO_printf(ptr noundef %50, ptr noundef @.str.115, ptr noundef %53)
  br label %55

55:                                               ; preds = %49, %45
  %56 = load ptr, ptr @bio_out, align 8, !tbaa !13
  %57 = call i32 (ptr, ptr, ...) @BIO_printf(ptr noundef %56, ptr noundef @.str.83)
  %58 = load ptr, ptr @bio_out, align 8, !tbaa !13
  %59 = call i32 (ptr, ptr, ...) @BIO_printf(ptr noundef %58, ptr noundef @.str.116)
  %60 = load ptr, ptr @bio_out, align 8, !tbaa !13
  %61 = call i32 (ptr, ptr, ...) @BIO_printf(ptr noundef %60, ptr noundef @.str.117)
  %62 = load ptr, ptr @bio_out, align 8, !tbaa !13
  %63 = load ptr, ptr %4, align 8, !tbaa !39
  call void @print_names(ptr noundef %62, ptr noundef %63)
  %64 = load ptr, ptr @bio_out, align 8, !tbaa !13
  %65 = load ptr, ptr %3, align 8, !tbaa !79
  %66 = call ptr @EVP_KEYMGMT_get0_provider(ptr noundef %65)
  %67 = call ptr @OSSL_PROVIDER_get0_name(ptr noundef %66)
  %68 = call i32 (ptr, ptr, ...) @BIO_printf(ptr noundef %64, ptr noundef @.str.103, ptr noundef %67)
  %69 = load i32, ptr @verbose, align 4, !tbaa !4
  %70 = icmp ne i32 %69, 0
  br i1 %70, label %71, label %81

71:                                               ; preds = %55
  %72 = load ptr, ptr %3, align 8, !tbaa !79
  %73 = call ptr @EVP_KEYMGMT_gen_settable_params(ptr noundef %72)
  %74 = call i32 @print_param_types(ptr noundef @.str.118, ptr noundef %73, i32 noundef 4)
  %75 = load ptr, ptr %3, align 8, !tbaa !79
  %76 = call ptr @EVP_KEYMGMT_settable_params(ptr noundef %75)
  %77 = call i32 @print_param_types(ptr noundef @.str.107, ptr noundef %76, i32 noundef 4)
  %78 = load ptr, ptr %3, align 8, !tbaa !79
  %79 = call ptr @EVP_KEYMGMT_gettable_params(ptr noundef %78)
  %80 = call i32 @print_param_types(ptr noundef @.str.106, ptr noundef %79, i32 noundef 4)
  br label %81

81:                                               ; preds = %71, %55
  call void @llvm.lifetime.end.p0(i64 8, ptr %6) #7
  br label %82

82:                                               ; preds = %81, %33, %28
  %83 = load ptr, ptr %4, align 8, !tbaa !39
  %84 = call ptr @ossl_check_OPENSSL_CSTRING_sk_type(ptr noundef %83)
  call void @OPENSSL_sk_free(ptr noundef %84)
  store i32 0, ptr %5, align 4
  br label %85

85:                                               ; preds = %82, %27
  call void @llvm.lifetime.end.p0(i64 8, ptr %4) #7
  call void @llvm.lifetime.end.p0(i64 8, ptr %3) #7
  %86 = load i32, ptr %5, align 4
  switch i32 %86, label %93 [
    i32 0, label %87
    i32 4, label %88
  ]

87:                                               ; preds = %85
  br label %88

88:                                               ; preds = %87, %85
  %89 = load i32, ptr %1, align 4, !tbaa !4
  %90 = add nsw i32 %89, 1
  store i32 %90, ptr %1, align 4, !tbaa !4
  br label %11, !llvm.loop !81

91:                                               ; preds = %11
  %92 = load ptr, ptr %2, align 8, !tbaa !77
  call void @sk_EVP_KEYMGMT_pop_free(ptr noundef %92, ptr noundef @EVP_KEYMGMT_free)
  call void @llvm.lifetime.end.p0(i64 8, ptr %2) #7
  call void @llvm.lifetime.end.p0(i64 4, ptr %1) #7
  ret void

93:                                               ; preds = %85
  unreachable
}