; Function Attrs: nounwind uwtable
define internal fastcc void @list_keymanagers() unnamed_addr #0 {
  %1 = tail call ptr @OPENSSL_sk_new(ptr noundef nonnull @keymanager_cmp) #6
  %2 = tail call ptr @app_get0_libctx() #6
  tail call void @EVP_KEYMGMT_do_all_provided(ptr noundef %2, ptr noundef nonnull @collect_keymanagers, ptr noundef %1) #6
  tail call void @OPENSSL_sk_sort(ptr noundef %1) #6
  %3 = tail call i32 @OPENSSL_sk_num(ptr noundef %1) #6
  %4 = icmp sgt i32 %3, 0
  br i1 %4, label %.lr.ph, label %._crit_edge

.lr.ph:                                           ; preds = %0, %41
  %.028 = phi i32 [ %42, %41 ], [ 0, %0 ]
  %5 = tail call ptr @OPENSSL_sk_value(ptr noundef %1, i32 noundef %.028) #6
  %6 = load ptr, ptr @select_name, align 8, !tbaa !23
  %.not = icmp eq ptr %6, null
  br i1 %.not, label %9, label %7

7:                                                ; preds = %.lr.ph
  %8 = tail call i32 @EVP_KEYMGMT_is_a(ptr noundef %5, ptr noundef nonnull %6) #6
  %.not24 = icmp eq i32 %8, 0
  br i1 %.not24, label %41, label %9

9:                                                ; preds = %7, %.lr.ph
  %10 = tail call ptr @OPENSSL_sk_new(ptr noundef nonnull @name_cmp) #6
  %.not25 = icmp eq ptr %10, null
  br i1 %.not25, label %40, label %11

11:                                               ; preds = %9
  %12 = tail call i32 @EVP_KEYMGMT_names_do_all(ptr noundef %5, ptr noundef nonnull @collect_names, ptr noundef nonnull %10) #6
  %.not26 = icmp eq i32 %12, 0
  br i1 %.not26, label %40, label %13

13:                                               ; preds = %11
  %14 = tail call ptr @EVP_KEYMGMT_get0_description(ptr noundef %5) #6
  %15 = load ptr, ptr @bio_out, align 8, !tbaa !4
  %16 = tail call i32 (ptr, ptr, ...) @BIO_printf(ptr noundef %15, ptr noundef nonnull @.str.114) #6
  %.not27 = icmp eq ptr %14, null
  %17 = load ptr, ptr @bio_out, align 8, !tbaa !4
  br i1 %.not27, label %18, label %20

18:                                               ; preds = %13
  %19 = tail call ptr @OPENSSL_sk_value(ptr noundef nonnull %10, i32 noundef 0) #6
  br label %20

20:                                               ; preds = %13, %18
  %.sink = phi ptr [ %19, %18 ], [ %14, %13 ]
  %21 = tail call i32 (ptr, ptr, ...) @BIO_printf(ptr noundef %17, ptr noundef nonnull @.str.115, ptr noundef %.sink) #6
  %22 = load ptr, ptr @bio_out, align 8, !tbaa !4
  %23 = tail call i32 (ptr, ptr, ...) @BIO_printf(ptr noundef %22, ptr noundef nonnull @.str.83) #6
  %24 = load ptr, ptr @bio_out, align 8, !tbaa !4
  %25 = tail call i32 (ptr, ptr, ...) @BIO_printf(ptr noundef %24, ptr noundef nonnull @.str.116) #6
  %26 = load ptr, ptr @bio_out, align 8, !tbaa !4
  %27 = tail call i32 (ptr, ptr, ...) @BIO_printf(ptr noundef %26, ptr noundef nonnull @.str.117) #6
  %28 = load ptr, ptr @bio_out, align 8, !tbaa !4
  tail call void @print_names(ptr noundef %28, ptr noundef nonnull %10) #6
  %29 = load ptr, ptr @bio_out, align 8, !tbaa !4
  %30 = tail call ptr @EVP_KEYMGMT_get0_provider(ptr noundef %5) #6
  %31 = tail call ptr @OSSL_PROVIDER_get0_name(ptr noundef %30) #6
  %32 = tail call i32 (ptr, ptr, ...) @BIO_printf(ptr noundef %29, ptr noundef nonnull @.str.103, ptr noundef %31) #6
  %.b = load i1, ptr @verbose, align 4
  br i1 %.b, label %33, label %40

33:                                               ; preds = %20
  %34 = tail call ptr @EVP_KEYMGMT_gen_settable_params(ptr noundef %5) #6
  %35 = tail call i32 @print_param_types(ptr noundef nonnull @.str.118, ptr noundef %34, i32 noundef 4) #6
  %36 = tail call ptr @EVP_KEYMGMT_settable_params(ptr noundef %5) #6
  %37 = tail call i32 @print_param_types(ptr noundef nonnull @.str.107, ptr noundef %36, i32 noundef 4) #6
  %38 = tail call ptr @EVP_KEYMGMT_gettable_params(ptr noundef %5) #6
  %39 = tail call i32 @print_param_types(ptr noundef nonnull @.str.106, ptr noundef %38, i32 noundef 4) #6
  br label %40

40:                                               ; preds = %20, %33, %11, %9
  tail call void @OPENSSL_sk_free(ptr noundef %10) #6
  br label %41

41:                                               ; preds = %7, %40
  %42 = add nuw nsw i32 %.028, 1
  %43 = tail call i32 @OPENSSL_sk_num(ptr noundef %1) #6
  %44 = icmp slt i32 %42, %43
  br i1 %44, label %.lr.ph, label %._crit_edge, !llvm.loop !50

._crit_edge:                                      ; preds = %41, %0
  tail call void @OPENSSL_sk_pop_free(ptr noundef %1, ptr noundef nonnull @EVP_KEYMGMT_free) #6
  ret void
}